; Function Attrs: mustprogress uwtable
define void @_ZN6duckdb8Executor8GetErrorEv(ptr dead_on_unwind noalias writable sret(%"class.duckdb::ErrorData") align 8 %0, ptr noundef nonnull align 8 dereferenceable(424) %1) local_unnamed_addr #0 align 2 personality ptr @__gxx_personality_v0 {
  %3 = getelementptr inbounds nuw i8, ptr %1, i64 200
  %4 = tail call noundef i32 @pthread_mutex_lock(ptr noundef nonnull align 8 dereferenceable(64) %3) #35, !noalias !644
  %.not.i.i.i = icmp eq i32 %4, 0
  br i1 %.not.i.i.i, label %_ZNSt10lock_guardISt5mutexEC2ERS0_.exit.i, label %5

5:                                                ; preds = %2
  tail call void @_ZSt20__throw_system_errori(i32 noundef %4) #36, !noalias !644
  unreachable

_ZNSt10lock_guardISt5mutexEC2ERS0_.exit.i:        ; preds = %2
  %6 = getelementptr inbounds nuw i8, ptr %1, i64 240
  %7 = invoke noundef nonnull align 8 dereferenceable(128) ptr @_ZN6duckdb6vectorINS_9ErrorDataELb1EEixEm(ptr noundef nonnull align 8 dereferenceable(24) %6, i64 noundef 0)
          to label %8 unwind label %9, !noalias !644

8:                                                ; preds = %_ZNSt10lock_guardISt5mutexEC2ERS0_.exit.i
  invoke void @_ZN6duckdb9ErrorDataC2ERKS0_(ptr noundef nonnull align 8 dereferenceable(128) %0, ptr noundef nonnull align 8 dereferenceable(128) %7)
          to label %_ZN6duckdb16TaskErrorManager8GetErrorEv.exit unwind label %9

9:                                                ; preds = %8, %_ZNSt10lock_guardISt5mutexEC2ERS0_.exit.i
  %10 = landingpad { ptr, i32 }
          cleanup
  %11 = tail call noundef i32 @pthread_mutex_unlock(ptr noundef nonnull align 8 dereferenceable(64) %3) #35
  resume { ptr, i32 } %10

_ZN6duckdb16TaskErrorManager8GetErrorEv.exit:     ; preds = %8
  %12 = tail call noundef i32 @pthread_mutex_unlock(ptr noundef nonnull align 8 dereferenceable(64) %3) #35
  ret void
}